target datalayout = "e-m:e-p270:32:32-p271:32:32-p272:64:64-i64:64-i128:128-f80:128-n8:16:32:64-S128"
target triple = "x86_64-unknown-linux-gnu"

%struct.mz_zip_archive_file_stat = type { i32, i32, i16, i16, i16, i16, i64, i32, i64, i64, i16, i32, i64, i32, [260 x i8], [256 x i8] }
%struct.utimbuf = type { i64, i64 }

@.str.16 = private unnamed_addr constant [3 x i8] c"wb\00", align 1

; Function Attrs: nounwind uwtable
define internal i32 @mz_zip_set_file_times(ptr noundef %pFilename, i64 noundef %access_time, i64 noundef %modified_time) #0 {
entry:
  %pFilename.addr = alloca ptr, align 8
  %access_time.addr = alloca i64, align 8
  %modified_time.addr = alloca i64, align 8
  %t = alloca %struct.utimbuf, align 8
  store ptr %pFilename, ptr %pFilename.addr, align 8
  store i64 %access_time, ptr %access_time.addr, align 8
  store i64 %modified_time, ptr %modified_time.addr, align 8
  call void @llvm.memset.p0.i64(ptr align 8 %t, i8 0, i64 16, i1 false)
  %0 = load i64, ptr %access_time.addr, align 8
  %actime = getelementptr inbounds %struct.utimbuf, ptr %t, i32 0, i32 0
  store i64 %0, ptr %actime, align 8
  %1 = load i64, ptr %modified_time.addr, align 8
  %modtime = getelementptr inbounds %struct.utimbuf, ptr %t, i32 0, i32 1
  store i64 %1, ptr %modtime, align 8
  %2 = load ptr, ptr %pFilename.addr, align 8
  %call = call i32 @utime(ptr noundef %2, ptr noundef %t) #10
  %tobool = icmp ne i32 %call, 0
  %lnot = xor i1 %tobool, true
  %lnot.ext = zext i1 %lnot to i32
  ret i32 %lnot.ext
}

; Function Attrs: nounwind uwtable
define hidden i32 @mz_zip_reader_extract_to_file(ptr noundef %pZip, i32 noundef %file_index, ptr noundef %pDst_filename, i32 noundef %flags) #0 {
entry:
  %retval = alloca i32, align 4
  %pZip.addr = alloca ptr, align 8
  %file_index.addr = alloca i32, align 4
  %pDst_filename.addr = alloca ptr, align 8
  %flags.addr = alloca i32, align 4
  %status = alloca i32, align 4
  %file_stat = alloca %struct.mz_zip_archive_file_stat, align 8
  %pFile = alloca ptr, align 8
  store ptr %pZip, ptr %pZip.addr, align 8
  store i32 %file_index, ptr %file_index.addr, align 4
  store ptr %pDst_filename, ptr %pDst_filename.addr, align 8
  store i32 %flags, ptr %flags.addr, align 4
  %0 = load ptr, ptr %pZip.addr, align 8
  %1 = load i32, ptr %file_index.addr, align 4
  %call = call i32 @mz_zip_reader_file_stat(ptr noundef %0, i32 noundef %1, ptr noundef %file_stat)
  %tobool = icmp ne i32 %call, 0
  br i1 %tobool, label %if.end, label %if.then

if.then:                                          ; preds = %entry
  store i32 0, ptr %retval, align 4
  br label %return

if.end:                                           ; preds = %entry
  %2 = load ptr, ptr %pDst_filename.addr, align 8
  %call1 = call noalias ptr @fopen(ptr noundef %2, ptr noundef @.str.16)
  store ptr %call1, ptr %pFile, align 8
  %3 = load ptr, ptr %pFile, align 8
  %tobool2 = icmp ne ptr %3, null
  br i1 %tobool2, label %if.end4, label %if.then3

if.then3:                                         ; preds = %if.end
  store i32 0, ptr %retval, align 4
  br label %return

if.end4:                                          ; preds = %if.end
  %4 = load ptr, ptr %pZip.addr, align 8
  %5 = load i32, ptr %file_index.addr, align 4
  %6 = load ptr, ptr %pFile, align 8
  %7 = load i32, ptr %flags.addr, align 4
  %call5 = call i32 @mz_zip_reader_extract_to_callback(ptr noundef %4, i32 noundef %5, ptr noundef @mz_zip_file_write_callback, ptr noundef %6, i32 noundef %7)
  store i32 %call5, ptr %status, align 4
  %8 = load ptr, ptr %pFile, align 8
  %call6 = call i32 @fclose(ptr noundef %8)
  %cmp = icmp eq i32 %call6, -1
  br i1 %cmp, label %if.then7, label %if.end8

if.then7:                                         ; preds = %if.end4
  store i32 0, ptr %retval, align 4
  br label %return

if.end8:                                          ; preds = %if.end4
  %9 = load i32, ptr %status, align 4
  %tobool9 = icmp ne i32 %9, 0
  br i1 %tobool9, label %if.then10, label %if.end13

if.then10:                                        ; preds = %if.end8
  %10 = load ptr, ptr %pDst_filename.addr, align 8
  %m_time = getelementptr inbounds %struct.mz_zip_archive_file_stat, ptr %file_stat, i32 0, i32 6
  %11 = load i64, ptr %m_time, align 8
  %m_time11 = getelementptr inbounds %struct.mz_zip_archive_file_stat, ptr %file_stat, i32 0, i32 6
  %12 = load i64, ptr %m_time11, align 8
  %call12 = call i32 @mz_zip_set_file_times(ptr noundef %10, i64 noundef %11, i64 noundef %12)
  br label %if.end13

if.end13:                                         ; preds = %if.then10, %if.end8
  %13 = load i32, ptr %status, align 4
  store i32 %13, ptr %retval, align 4
  br label %return

return:                                           ; preds = %if.end13, %if.then7, %if.then3, %if.then
  %14 = load i32, ptr %retval, align 4
  ret i32 %14
}

; Function Attrs: nounwind uwtable
define hidden i32 @mz_zip_reader_extract_file_to_file(ptr noundef %pZip, ptr noundef %pArchive_filename, ptr noundef %pDst_filename, i32 noundef %flags) #0 {
entry:
  %retval = alloca i32, align 4
  %pZip.addr = alloca ptr, align 8
  %pArchive_filename.addr = alloca ptr, align 8
  %pDst_filename.addr = alloca ptr, align 8
  %flags.addr = alloca i32, align 4
  %file_index = alloca i32, align 4
  store ptr %pZip, ptr %pZip.addr, align 8
  store ptr %pArchive_filename, ptr %pArchive_filename.addr, align 8
  store ptr %pDst_filename, ptr %pDst_filename.addr, align 8
  store i32 %flags, ptr %flags.addr, align 4
  %0 = load ptr, ptr %pZip.addr, align 8
  %1 = load ptr, ptr %pArchive_filename.addr, align 8
  %2 = load i32, ptr %flags.addr, align 4
  %call = call i32 @mz_zip_reader_locate_file(ptr noundef %0, ptr noundef %1, ptr noundef null, i32 noundef %2)
  store i32 %call, ptr %file_index, align 4
  %3 = load i32, ptr %file_index, align 4
  %cmp = icmp slt i32 %3, 0
  br i1 %cmp, label %if.then, label %if.end

if.then:                                          ; preds = %entry
  store i32 0, ptr %retval, align 4
  br label %return

if.end:                                           ; preds = %entry
  %4 = load ptr, ptr %pZip.addr, align 8
  %5 = load i32, ptr %file_index, align 4
  %6 = load ptr, ptr %pDst_filename.addr, align 8
  %7 = load i32, ptr %flags.addr, align 4
  %call1 = call i32 @mz_zip_reader_extract_to_file(ptr noundef %4, i32 noundef %5, ptr noundef %6, i32 noundef %7)
  store i32 %call1, ptr %retval, align 4
  br label %return

return:                                           ; preds = %if.end, %if.then
  %8 = load i32, ptr %retval, align 4
  ret i32 %8
}