; Function Attrs: nounwind uwtable
define hidden range(i32 0, 2) i32 @mz_zip_reader_extract_file_to_file(ptr noundef %pZip, ptr noundef %pArchive_filename, ptr noundef readonly captures(none) %pDst_filename, i32 noundef %flags) local_unnamed_addr #4 {
entry:
  %t.i.i = alloca %struct.utimbuf, align 8
  %file_stat.i = alloca %struct.mz_zip_archive_file_stat, align 8
  %call = tail call i32 @mz_zip_reader_locate_file(ptr noundef %pZip, ptr noundef %pArchive_filename, ptr noundef null, i32 noundef %flags)
  %cmp = icmp slt i32 %call, 0
  br i1 %cmp, label %return, label %if.end

if.end:                                           ; preds = %entry
  call void @llvm.lifetime.start.p0(i64 584, ptr nonnull %file_stat.i)
  %call.i = call i32 @mz_zip_reader_file_stat(ptr noundef %pZip, i32 noundef %call, ptr noundef nonnull %file_stat.i)
  %tobool.not.i = icmp eq i32 %call.i, 0
  br i1 %tobool.not.i, label %mz_zip_reader_extract_to_file.exit, label %if.end.i

if.end.i:                                         ; preds = %if.end
  %call1.i = call noalias ptr @fopen(ptr noundef readonly %pDst_filename, ptr noundef nonnull @.str.16)
  %tobool2.not.i = icmp eq ptr %call1.i, null
  br i1 %tobool2.not.i, label %mz_zip_reader_extract_to_file.exit, label %if.end4.i

if.end4.i:                                        ; preds = %if.end.i
  %call5.i = call i32 @mz_zip_reader_extract_to_callback(ptr noundef %pZip, i32 noundef %call, ptr noundef nonnull @mz_zip_file_write_callback, ptr noundef nonnull %call1.i, i32 noundef %flags)
  %call6.i = call i32 @fclose(ptr noundef nonnull %call1.i)
  %cmp.i = icmp eq i32 %call6.i, -1
  %tobool9.not.i = icmp eq i32 %call5.i, 0
  %or.cond.i = select i1 %cmp.i, i1 true, i1 %tobool9.not.i
  br i1 %or.cond.i, label %mz_zip_reader_extract_to_file.exit, label %if.then10.i

if.then10.i:                                      ; preds = %if.end4.i
  %m_time.i = getelementptr inbounds nuw i8, ptr %file_stat.i, i64 16
  %0 = load i64, ptr %m_time.i, align 8
  call void @llvm.lifetime.start.p0(i64 16, ptr nonnull %t.i.i)
  store i64 %0, ptr %t.i.i, align 8
  %modtime.i.i = getelementptr inbounds nuw i8, ptr %t.i.i, i64 8
  store i64 %0, ptr %modtime.i.i, align 8
  %call.i.i = call i32 @utime(ptr noundef readonly %pDst_filename, ptr noundef nonnull %t.i.i) #30
  call void @llvm.lifetime.end.p0(i64 16, ptr nonnull %t.i.i)
  br label %mz_zip_reader_extract_to_file.exit

mz_zip_reader_extract_to_file.exit:               ; preds = %if.end, %if.end.i, %if.end4.i, %if.then10.i
  %retval.0.i = phi i32 [ 0, %if.end ], [ 0, %if.end.i ], [ 0, %if.end4.i ], [ 1, %if.then10.i ]
  call void @llvm.lifetime.end.p0(i64 584, ptr nonnull %file_stat.i)
  br label %return

return:                                           ; preds = %entry, %mz_zip_reader_extract_to_file.exit
  %retval.0 = phi i32 [ %retval.0.i, %mz_zip_reader_extract_to_file.exit ], [ 0, %entry ]
  ret i32 %retval.0
}